; Function Attrs: mustprogress uwtable
define dso_local void @_ZN4absl14flags_internal24SetProgramInvocationNameESt17basic_string_viewIcSt11char_traitsIcEE(i64 %prog_name_str.coerce0, ptr %prog_name_str.coerce1) local_unnamed_addr #0 personality ptr @__gxx_personality_v0 {
entry:
  %agg.tmp.i = alloca %"struct.std::__cxx11::basic_string<char>::__sv_wrapper", align 8
  %ref.tmp = alloca %"class.std::allocator", align 1
  tail call void @_ZN4absl5Mutex4LockEv(ptr noundef nonnull align 8 dereferenceable(8) @_ZN4absl14flags_internalL18program_name_guardE)
  %0 = load ptr, ptr @_ZN4absl14flags_internalL12program_nameB5cxx11E, align 8
  %tobool.not = icmp eq ptr %0, null
  br i1 %tobool.not, label %if.then, label %if.else

if.then:                                          ; preds = %entry
  %call = invoke noalias noundef nonnull dereferenceable(32) ptr @_Znwm(i64 noundef 32) #13
          to label %invoke.cont unwind label %lpad

invoke.cont:                                      ; preds = %if.then
  call void @_ZNSaIcEC1Ev(ptr noundef nonnull align 1 dereferenceable(1) %ref.tmp) #10
  call void @llvm.lifetime.start.p0(i64 16, ptr nonnull %agg.tmp.i)
  %call.i = call { i64, ptr } @_ZNSt7__cxx1112basic_stringIcSt11char_traitsIcESaIcEE17_S_to_string_viewESt17basic_string_viewIcS2_E(i64 %prog_name_str.coerce0, ptr %prog_name_str.coerce1) #10
  %1 = extractvalue { i64, ptr } %call.i, 0
  %2 = extractvalue { i64, ptr } %call.i, 1
  call void @_ZNSt7__cxx1112basic_stringIcSt11char_traitsIcESaIcEE12__sv_wrapperC1ESt17basic_string_viewIcS2_E(ptr noundef nonnull align 8 dereferenceable(16) %agg.tmp.i, i64 %1, ptr %2) #10
  %3 = load i64, ptr %agg.tmp.i, align 8
  %4 = getelementptr inbounds nuw i8, ptr %agg.tmp.i, i64 8
  %5 = load ptr, ptr %4, align 8
  invoke void @_ZNSt7__cxx1112basic_stringIcSt11char_traitsIcESaIcEEC2ENS4_12__sv_wrapperERKS3_(ptr noundef nonnull align 8 dereferenceable(32) %call, i64 %3, ptr %5, ptr noundef nonnull align 1 dereferenceable(1) %ref.tmp)
          to label %invoke.cont2 unwind label %lpad1

invoke.cont2:                                     ; preds = %invoke.cont
  call void @llvm.lifetime.end.p0(i64 16, ptr nonnull %agg.tmp.i)
  store ptr %call, ptr @_ZN4absl14flags_internalL12program_nameB5cxx11E, align 8
  call void @_ZNSaIcED1Ev(ptr noundef nonnull align 1 dereferenceable(1) %ref.tmp) #10
  br label %if.end

lpad:                                             ; preds = %if.else, %if.then
  %6 = landingpad { ptr, i32 }
          cleanup
  br label %ehcleanup

lpad1:                                            ; preds = %invoke.cont
  %7 = landingpad { ptr, i32 }
          cleanup
  call void @_ZNSaIcED1Ev(ptr noundef nonnull align 1 dereferenceable(1) %ref.tmp) #10
  call void @_ZdlPv(ptr noundef nonnull %call) #14
  br label %ehcleanup

if.else:                                          ; preds = %entry
  %call6 = invoke noundef nonnull align 8 dereferenceable(32) ptr @_ZNSt7__cxx1112basic_stringIcSt11char_traitsIcESaIcEE6assignEPKcm(ptr noundef nonnull align 8 dereferenceable(32) %0, ptr noundef %prog_name_str.coerce1, i64 noundef %prog_name_str.coerce0)
          to label %if.end unwind label %lpad

if.end:                                           ; preds = %if.else, %invoke.cont2
  invoke void @_ZN4absl5Mutex6UnlockEv(ptr noundef nonnull align 8 dereferenceable(8) @_ZN4absl14flags_internalL18program_name_guardE)
          to label %_ZN4absl9MutexLockD2Ev.exit unwind label %terminate.lpad.i

terminate.lpad.i:                                 ; preds = %if.end
  %8 = landingpad { ptr, i32 }
          catch ptr null
  %9 = extractvalue { ptr, i32 } %8, 0
  call void @__clang_call_terminate(ptr %9) #11
  unreachable

_ZN4absl9MutexLockD2Ev.exit:                      ; preds = %if.end
  ret void

ehcleanup:                                        ; preds = %lpad1, %lpad
  %.pn = phi { ptr, i32 } [ %6, %lpad ], [ %7, %lpad1 ]
  invoke void @_ZN4absl5Mutex6UnlockEv(ptr noundef nonnull align 8 dereferenceable(8) @_ZN4absl14flags_internalL18program_name_guardE)
          to label %_ZN4absl9MutexLockD2Ev.exit3 unwind label %terminate.lpad.i2

terminate.lpad.i2:                                ; preds = %ehcleanup
  %10 = landingpad { ptr, i32 }
          catch ptr null
  %11 = extractvalue { ptr, i32 } %10, 0
  call void @__clang_call_terminate(ptr %11) #11
  unreachable

_ZN4absl9MutexLockD2Ev.exit3:                     ; preds = %ehcleanup
  resume { ptr, i32 } %.pn
}